target datalayout = "e-m:e-p270:32:32-p271:32:32-p272:64:64-i64:64-i128:128-f80:128-n8:16:32:64-S128"
target triple = "x86_64-pc-linux-gnu"

%"class.cv::xfeatures2d::StarDetectorImpl" = type <{ %"class.cv::xfeatures2d::StarDetector", i32, i32, i32, i32, i32, [4 x i8] }>
%"class.cv::xfeatures2d::StarDetector" = type { %"class.cv::Feature2D" }
%"class.cv::Feature2D" = type { %"class.cv::Algorithm" }
%"class.cv::Algorithm" = type { ptr }

; Function Attrs: inlinehint mustprogress nounwind uwtable
define linkonce_odr hidden void @_ZN2cv9Feature2DC2Ev(ptr noundef nonnull align 8 dereferenceable(8) %0, ptr noundef %1) unnamed_addr #3 comdat align 2 {
  %3 = alloca ptr, align 8
  %4 = alloca ptr, align 8
  store ptr %0, ptr %3, align 8, !tbaa !153
  store ptr %1, ptr %4, align 8, !tbaa !39
  %5 = load ptr, ptr %3, align 8
  %6 = load ptr, ptr %4, align 8
  %7 = load ptr, ptr %6, align 8
  store ptr %7, ptr %5, align 8, !tbaa !18
  %8 = getelementptr inbounds ptr, ptr %6, i64 1
  %9 = load ptr, ptr %8, align 8
  %10 = load ptr, ptr %5, align 8, !tbaa !18
  %11 = getelementptr i8, ptr %10, i64 -80
  %12 = load i64, ptr %11, align 8
  %13 = getelementptr inbounds i8, ptr %5, i64 %12
  store ptr %9, ptr %13, align 8, !tbaa !18
  ret void
}

; Function Attrs: inlinehint mustprogress uwtable
define linkonce_odr hidden void @_ZN2cv11xfeatures2d12StarDetectorC2Ev(ptr noundef nonnull align 8 dereferenceable(8) %0, ptr noundef %1) unnamed_addr #2 comdat align 2 {
  %3 = alloca ptr, align 8
  %4 = alloca ptr, align 8
  store ptr %0, ptr %3, align 8, !tbaa !37
  store ptr %1, ptr %4, align 8, !tbaa !39
  %5 = load ptr, ptr %3, align 8
  %6 = load ptr, ptr %4, align 8
  %7 = getelementptr inbounds ptr, ptr %6, i64 1
  call void @_ZN2cv9Feature2DC2Ev(ptr noundef nonnull align 8 dereferenceable(8) %5, ptr noundef %7)
  %8 = load ptr, ptr %6, align 8
  store ptr %8, ptr %5, align 8, !tbaa !18
  %9 = getelementptr inbounds ptr, ptr %6, i64 3
  %10 = load ptr, ptr %9, align 8
  %11 = load ptr, ptr %5, align 8, !tbaa !18
  %12 = getelementptr i8, ptr %11, i64 -80
  %13 = load i64, ptr %12, align 8
  %14 = getelementptr inbounds i8, ptr %5, i64 %13
  store ptr %10, ptr %14, align 8, !tbaa !18
  ret void
}

; Function Attrs: mustprogress uwtable
define hidden void @_ZN2cv11xfeatures2d16StarDetectorImplC1Eiiiii(ptr noundef nonnull align 8 dereferenceable(28) %0, i32 noundef %1, i32 noundef %2, i32 noundef %3, i32 noundef %4, i32 noundef %5) unnamed_addr #0 align 2 personality ptr @__gxx_personality_v0 {
  %7 = alloca ptr, align 8
  %8 = alloca i32, align 4
  %9 = alloca i32, align 4
  %10 = alloca i32, align 4
  %11 = alloca i32, align 4
  %12 = alloca i32, align 4
  %13 = alloca ptr, align 8
  %14 = alloca i32, align 4
  store ptr %0, ptr %7, align 8, !tbaa !14
  store i32 %1, ptr %8, align 4, !tbaa !3
  store i32 %2, ptr %9, align 4, !tbaa !3
  store i32 %3, ptr %10, align 4, !tbaa !3
  store i32 %4, ptr %11, align 4, !tbaa !3
  store i32 %5, ptr %12, align 4, !tbaa !3
  %15 = load ptr, ptr %7, align 8
  call void @_ZN2cv9AlgorithmC2Ev(ptr noundef nonnull align 8 dereferenceable(8) %15)
  invoke void @_ZN2cv11xfeatures2d12StarDetectorC2Ev(ptr noundef nonnull align 8 dereferenceable(8) %15, ptr noundef getelementptr inbounds ([6 x ptr], ptr @_ZTTN2cv11xfeatures2d16StarDetectorImplE, i64 0, i64 1))
          to label %16 unwind label %27

16:                                               ; preds = %6
  store ptr getelementptr inbounds inrange(-80, 208) ({ [36 x ptr] }, ptr @_ZTVN2cv11xfeatures2d16StarDetectorImplE, i32 0, i32 0, i32 10), ptr %15, align 8, !tbaa !18
  store ptr getelementptr inbounds inrange(-80, 208) ({ [36 x ptr] }, ptr @_ZTVN2cv11xfeatures2d16StarDetectorImplE, i32 0, i32 0, i32 10), ptr %15, align 8, !tbaa !18
  %17 = getelementptr inbounds nuw %"class.cv::xfeatures2d::StarDetectorImpl", ptr %15, i32 0, i32 1
  %18 = load i32, ptr %8, align 4, !tbaa !3
  store i32 %18, ptr %17, align 8, !tbaa !41
  %19 = getelementptr inbounds nuw %"class.cv::xfeatures2d::StarDetectorImpl", ptr %15, i32 0, i32 2
  %20 = load i32, ptr %9, align 4, !tbaa !3
  store i32 %20, ptr %19, align 4, !tbaa !45
  %21 = getelementptr inbounds nuw %"class.cv::xfeatures2d::StarDetectorImpl", ptr %15, i32 0, i32 3
  %22 = load i32, ptr %10, align 4, !tbaa !3
  store i32 %22, ptr %21, align 8, !tbaa !46
  %23 = getelementptr inbounds nuw %"class.cv::xfeatures2d::StarDetectorImpl", ptr %15, i32 0, i32 4
  %24 = load i32, ptr %11, align 4, !tbaa !3
  store i32 %24, ptr %23, align 4, !tbaa !47
  %25 = getelementptr inbounds nuw %"class.cv::xfeatures2d::StarDetectorImpl", ptr %15, i32 0, i32 5
  %26 = load i32, ptr %12, align 4, !tbaa !3
  store i32 %26, ptr %25, align 8, !tbaa !48
  ret void

27:                                               ; preds = %6
  %28 = landingpad { ptr, i32 }
          cleanup
  %29 = extractvalue { ptr, i32 } %28, 0
  store ptr %29, ptr %13, align 8
  %30 = extractvalue { ptr, i32 } %28, 1
  store i32 %30, ptr %14, align 4
  call void @_ZN2cv9AlgorithmD2Ev(ptr noundef nonnull align 8 dereferenceable(8) %15) #20
  br label %31

31:                                               ; preds = %27
  %32 = load ptr, ptr %13, align 8
  %33 = load i32, ptr %14, align 4
  %34 = insertvalue { ptr, i32 } poison, ptr %32, 0
  %35 = insertvalue { ptr, i32 } %34, i32 %33, 1
  resume { ptr, i32 } %35
}