; Function Attrs: mustprogress uwtable
define hidden void @_ZN2cv11xfeatures2d16StarDetectorImplC1Eiiiii(ptr noundef nonnull align 8 dereferenceable(28) %0, i32 noundef %1, i32 noundef %2, i32 noundef %3, i32 noundef %4, i32 noundef %5) unnamed_addr #0 align 2 personality ptr @__gxx_personality_v0 {
  tail call void @_ZN2cv9AlgorithmC2Ev(ptr noundef nonnull align 8 dereferenceable(8) %0)
  store ptr getelementptr inbounds nuw inrange(-80, 208) (i8, ptr @_ZTVN2cv11xfeatures2d16StarDetectorImplE, i64 80), ptr %0, align 8, !tbaa !14
  %7 = getelementptr inbounds nuw i8, ptr %0, i64 8
  store i32 %1, ptr %7, align 8, !tbaa !16
  %8 = getelementptr inbounds nuw i8, ptr %0, i64 12
  store i32 %2, ptr %8, align 4, !tbaa !20
  %9 = getelementptr inbounds nuw i8, ptr %0, i64 16
  store i32 %3, ptr %9, align 8, !tbaa !21
  %10 = getelementptr inbounds nuw i8, ptr %0, i64 20
  store i32 %4, ptr %10, align 4, !tbaa !22
  %11 = getelementptr inbounds nuw i8, ptr %0, i64 24
  store i32 %5, ptr %11, align 8, !tbaa !23
  ret void
}